; ModuleID = '14/788.c'
source_filename = "14/788.c"
target datalayout = "e-m:e-p270:32:32-p271:32:32-p272:64:64-i64:64-f80:128-n8:16:32:64-S128"
target triple = "x86_64-pc-linux-gnu"

%struct.student = type { i32, i32, i32 }

@.str = private unnamed_addr constant [3 x i8] c"%d\00", align 1
@.str.1 = private unnamed_addr constant [7 x i8] c"%d%d%d\00", align 1
@.str.2 = private unnamed_addr constant [19 x i8] c"%d %d\0A%d %d\0A%d %d\0A\00", align 1

; Function Attrs: noinline nounwind uwtable
define dso_local i32 @main(i32 %0, i8** %1) #0 {
  %3 = alloca i32, align 4
  %4 = alloca i32, align 4
  %5 = alloca i8**, align 8
  %6 = alloca i32, align 4
  %7 = alloca i64, align 8
  %8 = alloca [100000 x i32], align 16
  %9 = alloca i32, align 4
  %10 = alloca i32, align 4
  %11 = alloca i32, align 4
  %12 = alloca i32, align 4
  %13 = alloca i32, align 4
  %14 = alloca i32, align 4
  %15 = alloca [100000 x %struct.student], align 16
  store i32 0, i32* %3, align 4
  store i32 %0, i32* %4, align 4
  store i8** %1, i8*** %5, align 8
  store i32 0, i32* %9, align 4
  store i32 0, i32* %10, align 4
  store i32 0, i32* %11, align 4
  store i32 0, i32* %12, align 4
  store i32 0, i32* %13, align 4
  store i32 0, i32* %14, align 4
  %16 = call i32 (i8*, ...) @__isoc99_scanf(i8* getelementptr inbounds ([3 x i8], [3 x i8]* @.str, i64 0, i64 0), i64* %7)
  store i32 0, i32* %6, align 4
  br label %17

17:                                               ; preds = %100, %2
  %18 = load i32, i32* %6, align 4
  %19 = sext i32 %18 to i64
  %20 = load i64, i64* %7, align 8
  %21 = icmp slt i64 %19, %20
  br i1 %21, label %22, label %103

22:                                               ; preds = %17
  %23 = load i32, i32* %6, align 4
  %24 = sext i32 %23 to i64
  %25 = getelementptr inbounds [100000 x %struct.student], [100000 x %struct.student]* %15, i64 0, i64 %24
  %26 = getelementptr inbounds %struct.student, %struct.student* %25, i32 0, i32 0
  %27 = load i32, i32* %6, align 4
  %28 = sext i32 %27 to i64
  %29 = getelementptr inbounds [100000 x %struct.student], [100000 x %struct.student]* %15, i64 0, i64 %28
  %30 = getelementptr inbounds %struct.student, %struct.student* %29, i32 0, i32 1
  %31 = load i32, i32* %6, align 4
  %32 = sext i32 %31 to i64
  %33 = getelementptr inbounds [100000 x %struct.student], [100000 x %struct.student]* %15, i64 0, i64 %32
  %34 = getelementptr inbounds %struct.student, %struct.student* %33, i32 0, i32 2
  %35 = call i32 (i8*, ...) @__isoc99_scanf(i8* getelementptr inbounds ([7 x i8], [7 x i8]* @.str.1, i64 0, i64 0), i32* %26, i32* %30, i32* %34)
  %36 = load i32, i32* %6, align 4
  %37 = sext i32 %36 to i64
  %38 = getelementptr inbounds [100000 x %struct.student], [100000 x %struct.student]* %15, i64 0, i64 %37
  %39 = getelementptr inbounds %struct.student, %struct.student* %38, i32 0, i32 1
  %40 = load i32, i32* %39, align 4
  %41 = load i32, i32* %6, align 4
  %42 = sext i32 %41 to i64
  %43 = getelementptr inbounds [100000 x %struct.student], [100000 x %struct.student]* %15, i64 0, i64 %42
  %44 = getelementptr inbounds %struct.student, %struct.student* %43, i32 0, i32 2
  %45 = load i32, i32* %44, align 4
  %46 = add nsw i32 %40, %45
  %47 = load i32, i32* %6, align 4
  %48 = sext i32 %47 to i64
  %49 = getelementptr inbounds [100000 x i32], [100000 x i32]* %8, i64 0, i64 %48
  store i32 %46, i32* %49, align 4
  %50 = load i32, i32* %6, align 4
  %51 = sext i32 %50 to i64
  %52 = getelementptr inbounds [100000 x i32], [100000 x i32]* %8, i64 0, i64 %51
  %53 = load i32, i32* %52, align 4
  %54 = load i32, i32* %11, align 4
  %55 = icmp sgt i32 %53, %54
  br i1 %55, label %56, label %99

56:                                               ; preds = %22
  %57 = load i32, i32* %6, align 4
  %58 = sext i32 %57 to i64
  %59 = getelementptr inbounds [100000 x i32], [100000 x i32]* %8, i64 0, i64 %58
  %60 = load i32, i32* %59, align 4
  %61 = load i32, i32* %10, align 4
  %62 = icmp sle i32 %60, %61
  br i1 %62, label %63, label %70

63:                                               ; preds = %56
  %64 = load i32, i32* %6, align 4
  %65 = sext i32 %64 to i64
  %66 = getelementptr inbounds [100000 x i32], [100000 x i32]* %8, i64 0, i64 %65
  %67 = load i32, i32* %66, align 4
  store i32 %67, i32* %11, align 4
  %68 = load i32, i32* %6, align 4
  %69 = add nsw i32 %68, 1
  store i32 %69, i32* %14, align 4
  br label %98

70:                                               ; preds = %56
  %71 = load i32, i32* %6, align 4
  %72 = sext i32 %71 to i64
  %73 = getelementptr inbounds [100000 x i32], [100000 x i32]* %8, i64 0, i64 %72
  %74 = load i32, i32* %73, align 4
  %75 = load i32, i32* %9, align 4
  %76 = icmp sle i32 %74, %75
  br i1 %76, label %77, label %86

77:                                               ; preds = %70
  %78 = load i32, i32* %10, align 4
  store i32 %78, i32* %11, align 4
  %79 = load i32, i32* %6, align 4
  %80 = sext i32 %79 to i64
  %81 = getelementptr inbounds [100000 x i32], [100000 x i32]* %8, i64 0, i64 %80
  %82 = load i32, i32* %81, align 4
  store i32 %82, i32* %10, align 4
  %83 = load i32, i32* %13, align 4
  store i32 %83, i32* %14, align 4
  %84 = load i32, i32* %6, align 4
  %85 = add nsw i32 %84, 1
  store i32 %85, i32* %13, align 4
  br label %97

86:                                               ; preds = %70
  %87 = load i32, i32* %10, align 4
  store i32 %87, i32* %11, align 4
  %88 = load i32, i32* %13, align 4
  store i32 %88, i32* %14, align 4
  %89 = load i32, i32* %9, align 4
  store i32 %89, i32* %10, align 4
  %90 = load i32, i32* %12, align 4
  store i32 %90, i32* %13, align 4
  %91 = load i32, i32* %6, align 4
  %92 = sext i32 %91 to i64
  %93 = getelementptr inbounds [100000 x i32], [100000 x i32]* %8, i64 0, i64 %92
  %94 = load i32, i32* %93, align 4
  store i32 %94, i32* %9, align 4
  %95 = load i32, i32* %6, align 4
  %96 = add nsw i32 %95, 1
  store i32 %96, i32* %12, align 4
  br label %97

97:                                               ; preds = %86, %77
  br label %98

98:                                               ; preds = %97, %63
  br label %99

99:                                               ; preds = %98, %22
  br label %100

100:                                              ; preds = %99
  %101 = load i32, i32* %6, align 4
  %102 = add nsw i32 %101, 1
  store i32 %102, i32* %6, align 4
  br label %17

103:                                              ; preds = %17
  %104 = load i32, i32* %12, align 4
  %105 = load i32, i32* %9, align 4
  %106 = load i32, i32* %13, align 4
  %107 = load i32, i32* %10, align 4
  %108 = load i32, i32* %14, align 4
  %109 = load i32, i32* %11, align 4
  %110 = call i32 (i8*, ...) @printf(i8* getelementptr inbounds ([19 x i8], [19 x i8]* @.str.2, i64 0, i64 0), i32 %104, i32 %105, i32 %106, i32 %107, i32 %108, i32 %109)
  ret i32 0
}

declare dso_local i32 @__isoc99_scanf(i8*, ...) #1

declare dso_local i32 @printf(i8*, ...) #1


!llvm.module.flags = !{!0}
!llvm.ident = !{!1}

!0 = !{i32 1, !"wchar_size", i32 4}
!1 = !{!"clang version 10.0.0-4ubuntu1 "}
